; Function Attrs: nounwind uwtable
define ptr @ossl_ctx_global_properties(ptr noundef %0, i32 noundef %1) local_unnamed_addr #0 {
  %.not = icmp eq i32 %1, 0
  br i1 %.not, label %5, label %3

3:                                                ; preds = %2
  %4 = tail call i32 @OPENSSL_init_crypto(i64 noundef 64, ptr noundef null) #7
  %.not4 = icmp eq i32 %4, 0
  br i1 %.not4, label %7, label %5

5:                                                ; preds = %3, %2
  %6 = tail call ptr @ossl_lib_ctx_get_data(ptr noundef %0, i32 noundef 14) #7
  br label %7

7:                                                ; preds = %3, %5
  %.0 = phi ptr [ %6, %5 ], [ null, %3 ]
  ret ptr %.0
}